; Function Attrs: mustprogress uwtable
define hidden void @_ZN7datalog7context13replace_rulesERKNS_8rule_setE(ptr noundef nonnull align 8 dereferenceable(3556) %this, ptr noundef nonnull align 8 dereferenceable(248) %rs) local_unnamed_addr #3 align 2 {
entry:
  %m_rule_set = getelementptr inbounds i8, ptr %this, i64 2888
  tail call void @_ZN7datalog8rule_set13replace_rulesERKS0_(ptr noundef nonnull align 8 dereferenceable(248) %m_rule_set, ptr noundef nonnull align 8 dereferenceable(248) %rs)
  %m_rel = getelementptr inbounds i8, ptr %this, i64 3496
  %0 = load ptr, ptr %m_rel, align 8
  %tobool.not = icmp eq ptr %0, null
  br i1 %tobool.not, label %if.end, label %if.then

if.then:                                          ; preds = %entry
  %m_preds.i = getelementptr inbounds i8, ptr %this, i64 2816
  %vtable = load ptr, ptr %0, align 8
  %vfn = getelementptr inbounds i8, ptr %vtable, i64 256
  %1 = load ptr, ptr %vfn, align 8
  tail call void %1(ptr noundef nonnull align 8 dereferenceable(48) %0, ptr noundef nonnull align 8 dereferenceable(20) %m_preds.i)
  br label %if.end

if.end:                                           ; preds = %if.then, %entry
  ret void
}